target datalayout = "e-m:e-p270:32:32-p271:32:32-p272:64:64-i64:64-i128:128-f80:128-n8:16:32:64-S128"
target triple = "x86_64-pc-linux-gnu"

%struct.GCtrace = type { %struct.GCRef, i8, i8, i16, i32, i32, %struct.GCRef, ptr, i32, i32, ptr, ptr, %struct.GCRef, %struct.MRef, i32, i32, ptr, i32, i16, i16, i16, i16, i16, i16, i16, i8, i8, i8, i8 }
%struct.GCRef = type { i64 }
%struct.MRef = type { i64 }
%struct.IRType1 = type { i8 }
%union.IRIns = type { %struct.GCRef }
%struct.ASMState = type { [32 x i32], ptr, ptr, ptr, ptr, %struct.x86ModRM, i32, i32, i32, i32, i32, i32, i32, i32, i32, i32, i32, i32, i32, i32, i32, i32, i64, i64, i32, i32, i32, i32, i32, ptr, ptr, ptr, ptr, ptr, ptr, ptr, ptr, ptr, [32 x i16], [250 x i16] }
%struct.x86ModRM = type { i32, i8, i8, i8 }
%struct.anon.0 = type { i32, %struct.IRType1, i8, i8, i8 }
%struct.SnapShot = type { i32, i16, i16, i8, i8, i8, i8 }
%struct.anon = type { i16, i16, i16, i16 }

; Function Attrs: nounwind uwtable
define internal i32 @ra_spill(ptr noundef %0, ptr noundef %1) #0 {
  %3 = alloca ptr, align 8
  %4 = alloca ptr, align 8
  %5 = alloca i32, align 4
  store ptr %0, ptr %3, align 8, !tbaa !33
  store ptr %1, ptr %4, align 8, !tbaa !37
  call void @llvm.lifetime.start.p0(i64 4, ptr %5) #11
  %6 = load ptr, ptr %4, align 8, !tbaa !37
  %7 = getelementptr inbounds nuw %struct.anon.0, ptr %6, i32 0, i32 4
  %8 = load i8, ptr %7, align 1, !tbaa !25
  %9 = zext i8 %8 to i32
  store i32 %9, ptr %5, align 4, !tbaa !11
  %10 = load i32, ptr %5, align 4, !tbaa !11
  %11 = icmp ne i32 %10, 0
  br i1 %11, label %68, label %12

12:                                               ; preds = %2
  %13 = load ptr, ptr %4, align 8, !tbaa !37
  %14 = getelementptr inbounds nuw %struct.anon.0, ptr %13, i32 0, i32 1
  %15 = getelementptr inbounds nuw %struct.IRType1, ptr %14, i32 0, i32 0
  %16 = load i8, ptr %15, align 4, !tbaa !25
  %17 = zext i8 %16 to i32
  %18 = and i32 %17, 31
  %19 = lshr i32 6315993, %18
  %20 = and i32 %19, 1
  %21 = icmp ne i32 %20, 0
  br i1 %21, label %22, label %30

22:                                               ; preds = %12
  %23 = load ptr, ptr %3, align 8, !tbaa !33
  %24 = getelementptr inbounds nuw %struct.ASMState, ptr %23, i32 0, i32 12
  %25 = load i32, ptr %24, align 8, !tbaa !103
  store i32 %25, ptr %5, align 4, !tbaa !11
  %26 = load ptr, ptr %3, align 8, !tbaa !33
  %27 = getelementptr inbounds nuw %struct.ASMState, ptr %26, i32 0, i32 12
  %28 = load i32, ptr %27, align 8, !tbaa !103
  %29 = add nsw i32 %28, 2
  store i32 %29, ptr %27, align 8, !tbaa !103
  br label %54

30:                                               ; preds = %12
  %31 = load ptr, ptr %3, align 8, !tbaa !33
  %32 = getelementptr inbounds nuw %struct.ASMState, ptr %31, i32 0, i32 13
  %33 = load i32, ptr %32, align 4, !tbaa !110
  %34 = icmp ne i32 %33, 0
  br i1 %34, label %35, label %41

35:                                               ; preds = %30
  %36 = load ptr, ptr %3, align 8, !tbaa !33
  %37 = getelementptr inbounds nuw %struct.ASMState, ptr %36, i32 0, i32 13
  %38 = load i32, ptr %37, align 4, !tbaa !110
  store i32 %38, ptr %5, align 4, !tbaa !11
  %39 = load ptr, ptr %3, align 8, !tbaa !33
  %40 = getelementptr inbounds nuw %struct.ASMState, ptr %39, i32 0, i32 13
  store i32 0, ptr %40, align 4, !tbaa !110
  br label %53

41:                                               ; preds = %30
  %42 = load ptr, ptr %3, align 8, !tbaa !33
  %43 = getelementptr inbounds nuw %struct.ASMState, ptr %42, i32 0, i32 12
  %44 = load i32, ptr %43, align 8, !tbaa !103
  store i32 %44, ptr %5, align 4, !tbaa !11
  %45 = load i32, ptr %5, align 4, !tbaa !11
  %46 = add nsw i32 %45, 1
  %47 = load ptr, ptr %3, align 8, !tbaa !33
  %48 = getelementptr inbounds nuw %struct.ASMState, ptr %47, i32 0, i32 13
  store i32 %46, ptr %48, align 4, !tbaa !110
  %49 = load ptr, ptr %3, align 8, !tbaa !33
  %50 = getelementptr inbounds nuw %struct.ASMState, ptr %49, i32 0, i32 12
  %51 = load i32, ptr %50, align 8, !tbaa !103
  %52 = add nsw i32 %51, 2
  store i32 %52, ptr %50, align 8, !tbaa !103
  br label %53

53:                                               ; preds = %41, %35
  br label %54

54:                                               ; preds = %53, %22
  %55 = load ptr, ptr %3, align 8, !tbaa !33
  %56 = getelementptr inbounds nuw %struct.ASMState, ptr %55, i32 0, i32 12
  %57 = load i32, ptr %56, align 8, !tbaa !103
  %58 = icmp sgt i32 %57, 256
  br i1 %58, label %59, label %63

59:                                               ; preds = %54
  %60 = load ptr, ptr %3, align 8, !tbaa !33
  %61 = getelementptr inbounds nuw %struct.ASMState, ptr %60, i32 0, i32 4
  %62 = load ptr, ptr %61, align 8, !tbaa !51
  call void @lj_trace_err(ptr noundef %62, i32 noundef 30) #12
  unreachable

63:                                               ; preds = %54
  %64 = load i32, ptr %5, align 4, !tbaa !11
  %65 = trunc i32 %64 to i8
  %66 = load ptr, ptr %4, align 8, !tbaa !37
  %67 = getelementptr inbounds nuw %struct.anon.0, ptr %66, i32 0, i32 4
  store i8 %65, ptr %67, align 1, !tbaa !25
  br label %68

68:                                               ; preds = %63, %2
  %69 = load i32, ptr %5, align 4, !tbaa !11
  %70 = mul nsw i32 4, %69
  call void @llvm.lifetime.end.p0(i64 4, ptr %5) #11
  ret i32 %70
}

; Function Attrs: alwaysinline nounwind uwtable
define internal i32 @hashrot(i32 noundef %0, i32 noundef %1) #3 {
  %3 = alloca i32, align 4
  %4 = alloca i32, align 4
  store i32 %0, ptr %3, align 4, !tbaa !11
  store i32 %1, ptr %4, align 4, !tbaa !11
  %5 = load i32, ptr %4, align 4, !tbaa !11
  %6 = load i32, ptr %3, align 4, !tbaa !11
  %7 = xor i32 %6, %5
  store i32 %7, ptr %3, align 4, !tbaa !11
  %8 = load i32, ptr %4, align 4, !tbaa !11
  %9 = shl i32 %8, 14
  %10 = load i32, ptr %4, align 4, !tbaa !11
  %11 = lshr i32 %10, 18
  %12 = or i32 %9, %11
  store i32 %12, ptr %4, align 4, !tbaa !11
  %13 = load i32, ptr %4, align 4, !tbaa !11
  %14 = load i32, ptr %3, align 4, !tbaa !11
  %15 = sub i32 %14, %13
  store i32 %15, ptr %3, align 4, !tbaa !11
  %16 = load i32, ptr %4, align 4, !tbaa !11
  %17 = shl i32 %16, 5
  %18 = load i32, ptr %4, align 4, !tbaa !11
  %19 = lshr i32 %18, 27
  %20 = or i32 %17, %19
  store i32 %20, ptr %4, align 4, !tbaa !11
  %21 = load i32, ptr %3, align 4, !tbaa !11
  %22 = load i32, ptr %4, align 4, !tbaa !11
  %23 = xor i32 %22, %21
  store i32 %23, ptr %4, align 4, !tbaa !11
  %24 = load i32, ptr %3, align 4, !tbaa !11
  %25 = shl i32 %24, 13
  %26 = load i32, ptr %3, align 4, !tbaa !11
  %27 = lshr i32 %26, 19
  %28 = or i32 %25, %27
  %29 = load i32, ptr %4, align 4, !tbaa !11
  %30 = sub i32 %29, %28
  store i32 %30, ptr %4, align 4, !tbaa !11
  %31 = load i32, ptr %4, align 4, !tbaa !11
  ret i32 %31
}

; Function Attrs: nounwind uwtable
define internal i32 @asm_snap_checkrename(ptr noundef %0, i32 noundef %1) #0 {
  %3 = alloca i32, align 4
  %4 = alloca ptr, align 8
  %5 = alloca i32, align 4
  %6 = alloca ptr, align 8
  store ptr %0, ptr %4, align 8, !tbaa !33
  store i32 %1, ptr %5, align 4, !tbaa !11
  %7 = load ptr, ptr %4, align 8, !tbaa !33
  %8 = getelementptr inbounds nuw %struct.ASMState, ptr %7, i32 0, i32 22
  %9 = load i64, ptr %8, align 8, !tbaa !175
  %10 = load i32, ptr %5, align 4, !tbaa !11
  %11 = zext i32 %10 to i64
  %12 = and i64 %11, 63
  %13 = shl i64 1, %12
  %14 = and i64 %9, %13
  %15 = icmp ne i64 %14, 0
  br i1 %15, label %16, label %39

16:                                               ; preds = %2
  %17 = load ptr, ptr %4, align 8, !tbaa !33
  %18 = getelementptr inbounds nuw %struct.ASMState, ptr %17, i32 0, i32 23
  %19 = load i64, ptr %18, align 8, !tbaa !174
  %20 = load i32, ptr %5, align 4, !tbaa !11
  %21 = load i32, ptr %5, align 4, !tbaa !11
  %22 = add i32 %21, -79764919
  %23 = call i32 @hashrot(i32 noundef %20, i32 noundef %22)
  %24 = zext i32 %23 to i64
  %25 = and i64 %24, 63
  %26 = shl i64 1, %25
  %27 = and i64 %19, %26
  %28 = icmp ne i64 %27, 0
  br i1 %28, label %29, label %39

29:                                               ; preds = %16
  call void @llvm.lifetime.start.p0(i64 8, ptr %6) #11
  %30 = load ptr, ptr %4, align 8, !tbaa !33
  %31 = getelementptr inbounds nuw %struct.ASMState, ptr %30, i32 0, i32 3
  %32 = load ptr, ptr %31, align 8, !tbaa !70
  %33 = load i32, ptr %5, align 4, !tbaa !11
  %34 = zext i32 %33 to i64
  %35 = getelementptr inbounds nuw %union.IRIns, ptr %32, i64 %34
  store ptr %35, ptr %6, align 8, !tbaa !37
  %36 = load ptr, ptr %4, align 8, !tbaa !33
  %37 = load ptr, ptr %6, align 8, !tbaa !37
  %38 = call i32 @ra_spill(ptr noundef %36, ptr noundef %37)
  store i32 1, ptr %3, align 4
  call void @llvm.lifetime.end.p0(i64 8, ptr %6) #11
  br label %40

39:                                               ; preds = %16, %2
  store i32 0, ptr %3, align 4
  br label %40

40:                                               ; preds = %39, %29
  %41 = load i32, ptr %3, align 4
  ret i32 %41
}

; Function Attrs: nounwind uwtable
define internal void @asm_snap_alloc(ptr noundef %0, i32 noundef %1) #0 {
  %3 = alloca ptr, align 8
  %4 = alloca i32, align 4
  %5 = alloca ptr, align 8
  %6 = alloca ptr, align 8
  %7 = alloca i32, align 4
  %8 = alloca i32, align 4
  %9 = alloca i32, align 4
  %10 = alloca i32, align 4
  store ptr %0, ptr %3, align 8, !tbaa !33
  store i32 %1, ptr %4, align 4, !tbaa !11
  call void @llvm.lifetime.start.p0(i64 8, ptr %5) #11
  %11 = load ptr, ptr %3, align 8, !tbaa !33
  %12 = getelementptr inbounds nuw %struct.ASMState, ptr %11, i32 0, i32 29
  %13 = load ptr, ptr %12, align 8, !tbaa !52
  %14 = getelementptr inbounds nuw %struct.GCtrace, ptr %13, i32 0, i32 10
  %15 = load ptr, ptr %14, align 8, !tbaa !81
  %16 = load i32, ptr %4, align 4, !tbaa !11
  %17 = sext i32 %16 to i64
  %18 = getelementptr inbounds %struct.SnapShot, ptr %15, i64 %17
  store ptr %18, ptr %5, align 8, !tbaa !111
  call void @llvm.lifetime.start.p0(i64 8, ptr %6) #11
  %19 = load ptr, ptr %3, align 8, !tbaa !33
  %20 = getelementptr inbounds nuw %struct.ASMState, ptr %19, i32 0, i32 29
  %21 = load ptr, ptr %20, align 8, !tbaa !52
  %22 = getelementptr inbounds nuw %struct.GCtrace, ptr %21, i32 0, i32 11
  %23 = load ptr, ptr %22, align 8, !tbaa !113
  %24 = load ptr, ptr %5, align 8, !tbaa !111
  %25 = getelementptr inbounds nuw %struct.SnapShot, ptr %24, i32 0, i32 0
  %26 = load i32, ptr %25, align 4, !tbaa !114
  %27 = zext i32 %26 to i64
  %28 = getelementptr inbounds nuw i32, ptr %23, i64 %27
  store ptr %28, ptr %6, align 8, !tbaa !116
  call void @llvm.lifetime.start.p0(i64 4, ptr %7) #11
  call void @llvm.lifetime.start.p0(i64 4, ptr %8) #11
  %29 = load ptr, ptr %5, align 8, !tbaa !111
  %30 = getelementptr inbounds nuw %struct.SnapShot, ptr %29, i32 0, i32 5
  %31 = load i8, ptr %30, align 2, !tbaa !115
  %32 = zext i8 %31 to i32
  store i32 %32, ptr %8, align 4, !tbaa !11
  %33 = load ptr, ptr %3, align 8, !tbaa !33
  %34 = getelementptr inbounds nuw %struct.ASMState, ptr %33, i32 0, i32 23
  store i64 0, ptr %34, align 8, !tbaa !174
  %35 = load ptr, ptr %3, align 8, !tbaa !33
  %36 = getelementptr inbounds nuw %struct.ASMState, ptr %35, i32 0, i32 22
  store i64 0, ptr %36, align 8, !tbaa !175
  store i32 0, ptr %7, align 4, !tbaa !11
  br label %37

37:                                               ; preds = %55, %2
  %38 = load i32, ptr %7, align 4, !tbaa !11
  %39 = load i32, ptr %8, align 4, !tbaa !11
  %40 = icmp ult i32 %38, %39
  br i1 %40, label %41, label %58

41:                                               ; preds = %37
  call void @llvm.lifetime.start.p0(i64 4, ptr %9) #11
  %42 = load ptr, ptr %6, align 8, !tbaa !116
  %43 = load i32, ptr %7, align 4, !tbaa !11
  %44 = zext i32 %43 to i64
  %45 = getelementptr inbounds nuw i32, ptr %42, i64 %44
  %46 = load i32, ptr %45, align 4, !tbaa !11
  store i32 %46, ptr %9, align 4, !tbaa !11
  call void @llvm.lifetime.start.p0(i64 4, ptr %10) #11
  %47 = load i32, ptr %9, align 4, !tbaa !11
  %48 = and i32 %47, 65535
  store i32 %48, ptr %10, align 4, !tbaa !11
  %49 = load i32, ptr %10, align 4, !tbaa !11
  %50 = icmp ult i32 %49, 32768
  br i1 %50, label %54, label %51

51:                                               ; preds = %41
  %52 = load ptr, ptr %3, align 8, !tbaa !33
  %53 = load i32, ptr %10, align 4, !tbaa !11
  call void @asm_snap_alloc1(ptr noundef %52, i32 noundef %53)
  br label %54

54:                                               ; preds = %51, %41
  call void @llvm.lifetime.end.p0(i64 4, ptr %10) #11
  call void @llvm.lifetime.end.p0(i64 4, ptr %9) #11
  br label %55

55:                                               ; preds = %54
  %56 = load i32, ptr %7, align 4, !tbaa !11
  %57 = add i32 %56, 1
  store i32 %57, ptr %7, align 4, !tbaa !11
  br label %37, !llvm.loop !176

58:                                               ; preds = %37
  call void @llvm.lifetime.end.p0(i64 4, ptr %8) #11
  call void @llvm.lifetime.end.p0(i64 4, ptr %7) #11
  call void @llvm.lifetime.end.p0(i64 8, ptr %6) #11
  call void @llvm.lifetime.end.p0(i64 8, ptr %5) #11
  ret void
}

; Function Attrs: nounwind uwtable
define internal void @asm_snap_prep(ptr noundef %0) #0 {
  %2 = alloca ptr, align 8
  %3 = alloca ptr, align 8
  store ptr %0, ptr %2, align 8, !tbaa !33
  %4 = load ptr, ptr %2, align 8, !tbaa !33
  %5 = getelementptr inbounds nuw %struct.ASMState, ptr %4, i32 0, i32 21
  %6 = load i32, ptr %5, align 4, !tbaa !98
  %7 = icmp ne i32 %6, 0
  br i1 %7, label %8, label %22

8:                                                ; preds = %1
  %9 = load ptr, ptr %2, align 8, !tbaa !33
  %10 = getelementptr inbounds nuw %struct.ASMState, ptr %9, i32 0, i32 21
  store i32 0, ptr %10, align 4, !tbaa !98
  %11 = load ptr, ptr %2, align 8, !tbaa !33
  %12 = load ptr, ptr %2, align 8, !tbaa !33
  %13 = getelementptr inbounds nuw %struct.ASMState, ptr %12, i32 0, i32 19
  %14 = load i32, ptr %13, align 4, !tbaa !97
  call void @asm_snap_alloc(ptr noundef %11, i32 noundef %14)
  %15 = load ptr, ptr %2, align 8, !tbaa !33
  %16 = getelementptr inbounds nuw %struct.ASMState, ptr %15, i32 0, i32 29
  %17 = load ptr, ptr %16, align 8, !tbaa !52
  %18 = getelementptr inbounds nuw %struct.GCtrace, ptr %17, i32 0, i32 4
  %19 = load i32, ptr %18, align 4, !tbaa !35
  %20 = load ptr, ptr %2, align 8, !tbaa !33
  %21 = getelementptr inbounds nuw %struct.ASMState, ptr %20, i32 0, i32 18
  store i32 %19, ptr %21, align 8, !tbaa !95
  br label %61

22:                                               ; preds = %1
  br label %23

23:                                               ; preds = %55, %22
  %24 = load ptr, ptr %2, align 8, !tbaa !33
  %25 = getelementptr inbounds nuw %struct.ASMState, ptr %24, i32 0, i32 18
  %26 = load i32, ptr %25, align 8, !tbaa !95
  %27 = load ptr, ptr %2, align 8, !tbaa !33
  %28 = getelementptr inbounds nuw %struct.ASMState, ptr %27, i32 0, i32 29
  %29 = load ptr, ptr %28, align 8, !tbaa !52
  %30 = getelementptr inbounds nuw %struct.GCtrace, ptr %29, i32 0, i32 4
  %31 = load i32, ptr %30, align 4, !tbaa !35
  %32 = icmp ult i32 %26, %31
  br i1 %32, label %33, label %60

33:                                               ; preds = %23
  call void @llvm.lifetime.start.p0(i64 8, ptr %3) #11
  %34 = load ptr, ptr %2, align 8, !tbaa !33
  %35 = getelementptr inbounds nuw %struct.ASMState, ptr %34, i32 0, i32 29
  %36 = load ptr, ptr %35, align 8, !tbaa !52
  %37 = getelementptr inbounds nuw %struct.GCtrace, ptr %36, i32 0, i32 7
  %38 = load ptr, ptr %37, align 8, !tbaa !36
  %39 = load ptr, ptr %2, align 8, !tbaa !33
  %40 = getelementptr inbounds nuw %struct.ASMState, ptr %39, i32 0, i32 18
  %41 = load i32, ptr %40, align 8, !tbaa !95
  %42 = zext i32 %41 to i64
  %43 = getelementptr inbounds nuw %union.IRIns, ptr %38, i64 %42
  store ptr %43, ptr %3, align 8, !tbaa !37
  %44 = load ptr, ptr %2, align 8, !tbaa !33
  %45 = load ptr, ptr %3, align 8, !tbaa !37
  %46 = getelementptr inbounds nuw %struct.anon, ptr %45, i32 0, i32 0
  %47 = load i16, ptr %46, align 8, !tbaa !25
  %48 = zext i16 %47 to i32
  %49 = call i32 @asm_snap_checkrename(ptr noundef %44, i32 noundef %48)
  %50 = icmp ne i32 %49, 0
  br i1 %50, label %51, label %54

51:                                               ; preds = %33
  %52 = load ptr, ptr %3, align 8, !tbaa !37
  %53 = getelementptr inbounds nuw %struct.anon, ptr %52, i32 0, i32 1
  store i16 32767, ptr %53, align 2, !tbaa !25
  br label %54

54:                                               ; preds = %51, %33
  call void @llvm.lifetime.end.p0(i64 8, ptr %3) #11
  br label %55

55:                                               ; preds = %54
  %56 = load ptr, ptr %2, align 8, !tbaa !33
  %57 = getelementptr inbounds nuw %struct.ASMState, ptr %56, i32 0, i32 18
  %58 = load i32, ptr %57, align 8, !tbaa !95
  %59 = add i32 %58, 1
  store i32 %59, ptr %57, align 8, !tbaa !95
  br label %23, !llvm.loop !121

60:                                               ; preds = %23
  br label %61

61:                                               ; preds = %60, %8
  ret void
}