; Function Attrs: nounwind uwtable
define internal fastcc void @asm_snap_prep(ptr noundef nonnull captures(none) %0) unnamed_addr #0 {
  %2 = getelementptr inbounds nuw i8, ptr %0, i64 228
  %3 = load i32, ptr %2, align 4, !tbaa !88
  %.not = icmp eq i32 %3, 0
  br i1 %.not, label %.preheader, label %16

.preheader:                                       ; preds = %1
  %4 = getelementptr inbounds nuw i8, ptr %0, i64 216
  %5 = getelementptr inbounds nuw i8, ptr %0, i64 272
  %6 = load i32, ptr %4, align 8, !tbaa !85
  %7 = load ptr, ptr %5, align 8, !tbaa !45
  %8 = getelementptr inbounds nuw i8, ptr %7, i64 12
  %9 = load i32, ptr %8, align 4, !tbaa !25
  %10 = icmp ult i32 %6, %9
  br i1 %10, label %.lr.ph, label %.loopexit

.lr.ph:                                           ; preds = %.preheader
  %11 = getelementptr inbounds nuw i8, ptr %0, i64 232
  %12 = getelementptr inbounds nuw i8, ptr %0, i64 240
  %13 = getelementptr inbounds nuw i8, ptr %0, i64 144
  %14 = getelementptr inbounds nuw i8, ptr %0, i64 192
  %15 = getelementptr inbounds nuw i8, ptr %0, i64 196
  br label %43

16:                                               ; preds = %1
  store i32 0, ptr %2, align 4, !tbaa !88
  %17 = getelementptr inbounds nuw i8, ptr %0, i64 220
  %18 = load i32, ptr %17, align 4, !tbaa !87
  %19 = getelementptr inbounds nuw i8, ptr %0, i64 272
  %20 = load ptr, ptr %19, align 8, !tbaa !45
  %21 = getelementptr inbounds nuw i8, ptr %20, i64 48
  %22 = load ptr, ptr %21, align 8, !tbaa !101
  %23 = sext i32 %18 to i64
  %24 = getelementptr inbounds %struct.SnapShot, ptr %22, i64 %23
  %25 = getelementptr inbounds nuw i8, ptr %20, i64 56
  %26 = load ptr, ptr %25, align 8, !tbaa !105
  %27 = load i32, ptr %24, align 4, !tbaa !102
  %28 = zext i32 %27 to i64
  %29 = getelementptr inbounds nuw i32, ptr %26, i64 %28
  %30 = getelementptr inbounds nuw i8, ptr %24, i64 10
  %31 = load i8, ptr %30, align 2, !tbaa !104
  %32 = getelementptr inbounds nuw i8, ptr %0, i64 232
  %.not.i = icmp eq i8 %31, 0
  tail call void @llvm.memset.p0.i64(ptr noundef nonnull align 8 dereferenceable(16) %32, i8 0, i64 16, i1 false)
  br i1 %.not.i, label %asm_snap_alloc.exit, label %.lr.ph.preheader.i

.lr.ph.preheader.i:                               ; preds = %16
  %wide.trip.count.i = zext i8 %31 to i64
  br label %.lr.ph.i

.lr.ph.i:                                         ; preds = %38, %.lr.ph.preheader.i
  %indvars.iv.i = phi i64 [ 0, %.lr.ph.preheader.i ], [ %indvars.iv.next.i, %38 ]
  %33 = getelementptr inbounds nuw i32, ptr %29, i64 %indvars.iv.i
  %34 = load i32, ptr %33, align 4, !tbaa !21
  %35 = and i32 %34, 65535
  %36 = icmp samesign ult i32 %35, 32768
  br i1 %36, label %38, label %37

37:                                               ; preds = %.lr.ph.i
  tail call fastcc void @asm_snap_alloc1(ptr noundef nonnull %0, i32 noundef %35)
  br label %38

38:                                               ; preds = %37, %.lr.ph.i
  %indvars.iv.next.i = add nuw nsw i64 %indvars.iv.i, 1
  %exitcond.not.i = icmp eq i64 %indvars.iv.next.i, %wide.trip.count.i
  br i1 %exitcond.not.i, label %asm_snap_alloc.exit.loopexit, label %.lr.ph.i, !llvm.loop !117

asm_snap_alloc.exit.loopexit:                     ; preds = %38
  %.pre = load ptr, ptr %19, align 8, !tbaa !45
  br label %asm_snap_alloc.exit

asm_snap_alloc.exit:                              ; preds = %asm_snap_alloc.exit.loopexit, %16
  %39 = phi ptr [ %.pre, %asm_snap_alloc.exit.loopexit ], [ %20, %16 ]
  %40 = getelementptr inbounds nuw i8, ptr %39, i64 12
  %41 = load i32, ptr %40, align 4, !tbaa !25
  %42 = getelementptr inbounds nuw i8, ptr %0, i64 216
  store i32 %41, ptr %42, align 8, !tbaa !85
  br label %.loopexit

43:                                               ; preds = %.lr.ph, %asm_snap_checkrename.exit.thread
  %44 = phi ptr [ %7, %.lr.ph ], [ %102, %asm_snap_checkrename.exit.thread ]
  %45 = phi i32 [ %6, %.lr.ph ], [ %104, %asm_snap_checkrename.exit.thread ]
  %46 = getelementptr inbounds nuw i8, ptr %44, i64 32
  %47 = load ptr, ptr %46, align 8, !tbaa !26
  %48 = zext i32 %45 to i64
  %49 = getelementptr inbounds nuw %union.IRIns, ptr %47, i64 %48
  %50 = load i16, ptr %49, align 8, !tbaa !20
  %51 = load i64, ptr %11, align 8, !tbaa !118
  %52 = zext i16 %50 to i64
  %53 = and i64 %52, 63
  %54 = shl nuw i64 1, %53
  %55 = and i64 %54, %51
  %.not.i15 = icmp eq i64 %55, 0
  br i1 %.not.i15, label %asm_snap_checkrename.exit.thread, label %56

56:                                               ; preds = %43
  %57 = zext i16 %50 to i32
  %58 = load i64, ptr %12, align 8, !tbaa !119
  %59 = add nuw nsw i32 %57, -79764919
  %60 = xor i32 %59, %57
  %61 = tail call i32 @llvm.fshl.i32(i32 %59, i32 -79822848, i32 14)
  %62 = sub nsw i32 %60, %61
  %63 = tail call i32 @llvm.fshl.i32(i32 -2147467569, i32 %61, i32 5)
  %64 = xor i32 %63, %62
  %65 = lshr i32 %62, 19
  %66 = sub i32 %64, %65
  %67 = and i32 %66, 63
  %68 = zext nneg i32 %67 to i64
  %69 = shl nuw i64 1, %68
  %70 = and i64 %58, %69
  %.not9.i = icmp eq i64 %70, 0
  br i1 %.not9.i, label %asm_snap_checkrename.exit.thread, label %71

71:                                               ; preds = %56
  %72 = load ptr, ptr %13, align 8, !tbaa !68
  %73 = getelementptr inbounds nuw %union.IRIns, ptr %72, i64 %52
  %74 = getelementptr inbounds nuw i8, ptr %73, i64 7
  %75 = load i8, ptr %74, align 1, !tbaa !20
  %.not.i.i = icmp eq i8 %75, 0
  br i1 %.not.i.i, label %76, label %asm_snap_checkrename.exit

76:                                               ; preds = %71
  %77 = getelementptr inbounds nuw i8, ptr %73, i64 4
  %78 = load i8, ptr %77, align 4, !tbaa !20
  %79 = and i8 %78, 31
  %80 = zext nneg i8 %79 to i32
  %81 = shl nuw i32 1, %80
  %82 = and i32 %81, 6315993
  %.not18.i.i = icmp eq i32 %82, 0
  br i1 %.not18.i.i, label %86, label %83

83:                                               ; preds = %76
  %84 = load i32, ptr %14, align 8, !tbaa !93
  %85 = add nsw i32 %84, 2
  store i32 %85, ptr %14, align 8, !tbaa !93
  br label %93

86:                                               ; preds = %76
  %87 = load i32, ptr %15, align 4, !tbaa !100
  %.not19.i.i = icmp eq i32 %87, 0
  br i1 %.not19.i.i, label %89, label %88

88:                                               ; preds = %86
  store i32 0, ptr %15, align 4, !tbaa !100
  %.pre.i.i = load i32, ptr %14, align 8, !tbaa !93
  br label %93

89:                                               ; preds = %86
  %90 = load i32, ptr %14, align 8, !tbaa !93
  %91 = add nsw i32 %90, 1
  store i32 %91, ptr %15, align 4, !tbaa !100
  %92 = add nsw i32 %90, 2
  store i32 %92, ptr %14, align 8, !tbaa !93
  br label %93

93:                                               ; preds = %89, %88, %83
  %94 = phi i32 [ %85, %83 ], [ %.pre.i.i, %88 ], [ %92, %89 ]
  %.1.i.i = phi i32 [ %84, %83 ], [ %87, %88 ], [ %90, %89 ]
  %95 = icmp sgt i32 %94, 256
  br i1 %95, label %96, label %99

96:                                               ; preds = %93
  %97 = getelementptr inbounds nuw i8, ptr %0, i64 152
  %98 = load ptr, ptr %97, align 8, !tbaa !44
  tail call void @lj_trace_err(ptr noundef %98, i32 noundef 30) #15
  unreachable

99:                                               ; preds = %93
  %100 = trunc i32 %.1.i.i to i8
  store i8 %100, ptr %74, align 1, !tbaa !20
  br label %asm_snap_checkrename.exit

asm_snap_checkrename.exit:                        ; preds = %99, %71
  %101 = getelementptr inbounds nuw i8, ptr %49, i64 2
  store i16 32767, ptr %101, align 2, !tbaa !20
  %.pre18 = load i32, ptr %4, align 8, !tbaa !85
  %.pre19 = load ptr, ptr %5, align 8, !tbaa !45
  br label %asm_snap_checkrename.exit.thread

asm_snap_checkrename.exit.thread:                 ; preds = %43, %56, %asm_snap_checkrename.exit
  %102 = phi ptr [ %44, %43 ], [ %44, %56 ], [ %.pre19, %asm_snap_checkrename.exit ]
  %103 = phi i32 [ %45, %43 ], [ %45, %56 ], [ %.pre18, %asm_snap_checkrename.exit ]
  %104 = add i32 %103, 1
  store i32 %104, ptr %4, align 8, !tbaa !85
  %105 = getelementptr inbounds nuw i8, ptr %102, i64 12
  %106 = load i32, ptr %105, align 4, !tbaa !25
  %107 = icmp ult i32 %104, %106
  br i1 %107, label %43, label %.loopexit, !llvm.loop !120

.loopexit:                                        ; preds = %asm_snap_checkrename.exit.thread, %.preheader, %asm_snap_alloc.exit
  ret void
}